target datalayout = "e-m:e-p270:32:32-p271:32:32-p272:64:64-i64:64-i128:128-f80:128-n8:16:32:64-S128"
target triple = "x86_64-pc-linux-gnu"

%struct.ForEachState = type { ptr, i32 }
%struct.PlannerInfo = type { i32, ptr, ptr, i32, ptr, ptr, ptr, ptr, i32, ptr, ptr, ptr, ptr, ptr, ptr, ptr, ptr, i32, ptr, ptr, ptr, ptr, ptr, i8, ptr, ptr, ptr, ptr, ptr, i32, ptr, ptr, ptr, ptr, ptr, ptr, ptr, i32, ptr, ptr, ptr, i32, ptr, ptr, ptr, ptr, ptr, ptr, [8 x ptr], [8 x ptr], ptr, ptr, ptr, ptr, ptr, ptr, ptr, double, double, double, i32, i8, i8, i8, i8, i8, i8, i8, i32, ptr, ptr, i32, i8, i8, i32, ptr, ptr, ptr, ptr, ptr, ptr, i8, ptr }
%struct.RelOptInfo = type { i32, i32, ptr, double, i8, i8, i8, ptr, ptr, ptr, ptr, ptr, ptr, ptr, ptr, ptr, ptr, i32, i32, i32, i16, i16, ptr, ptr, ptr, ptr, ptr, ptr, ptr, ptr, i32, double, double, ptr, ptr, ptr, i32, i32, i32, i32, i8, ptr, ptr, ptr, ptr, ptr, %struct.QualCost, i32, ptr, i8, i8, ptr, ptr, ptr, ptr, i32, ptr, i8, ptr, ptr, ptr, ptr, ptr, ptr }
%struct.QualCost = type { double, double }
%struct.List = type { i32, i32, i32, ptr, [0 x %union.ListCell] }
%union.ListCell = type { ptr }
%struct.RestrictInfo = type { i32, ptr, i8, i8, i8, i8, i8, i8, i32, i32, i32, ptr, ptr, ptr, ptr, ptr, ptr, ptr, i32, ptr, %struct.QualCost, double, double, ptr, ptr, ptr, ptr, ptr, ptr, i8, i32, double, double, double, double, i32, i32 }
%struct.SpecialJoinInfo = type { i32, ptr, ptr, ptr, ptr, i32, i32, ptr, ptr, ptr, ptr, i8, i8, i8, ptr, ptr }

; Function Attrs: nounwind uwtable
define internal void @consider_new_or_clause(ptr noundef %0, ptr noundef %1, ptr noundef %2, ptr noundef %3) #0 {
  %5 = alloca ptr, align 8
  %6 = alloca ptr, align 8
  %7 = alloca ptr, align 8
  %8 = alloca ptr, align 8
  %9 = alloca ptr, align 8
  %10 = alloca double, align 8
  %11 = alloca double, align 8
  %12 = alloca i32, align 4
  %13 = alloca %struct.SpecialJoinInfo, align 8
  store ptr %0, ptr %5, align 8
  store ptr %1, ptr %6, align 8
  store ptr %2, ptr %7, align 8
  store ptr %3, ptr %8, align 8
  call void @llvm.lifetime.start.p0(i64 8, ptr %9) #5
  call void @llvm.lifetime.start.p0(i64 8, ptr %10) #5
  call void @llvm.lifetime.start.p0(i64 8, ptr %11) #5
  %14 = load ptr, ptr %5, align 8
  %15 = load ptr, ptr %7, align 8
  %16 = load ptr, ptr %8, align 8
  %17 = getelementptr inbounds nuw %struct.RestrictInfo, ptr %16, i32 0, i32 9
  %18 = load i32, ptr %17, align 4
  %19 = call ptr @make_restrictinfo(ptr noundef %14, ptr noundef %15, i1 noundef zeroext true, i1 noundef zeroext false, i1 noundef zeroext false, i1 noundef zeroext false, i32 noundef %18, ptr noundef null, ptr noundef null, ptr noundef null)
  store ptr %19, ptr %9, align 8
  %20 = load ptr, ptr %5, align 8
  %21 = load ptr, ptr %9, align 8
  %22 = call double @clause_selectivity(ptr noundef %20, ptr noundef %21, i32 noundef 0, i32 noundef 0, ptr noundef null)
  store double %22, ptr %10, align 8
  %23 = load double, ptr %10, align 8
  %24 = fcmp ogt double %23, 9.000000e-01
  br i1 %24, label %25, label %26

25:                                               ; preds = %4
  store i32 1, ptr %12, align 4
  br label %83

26:                                               ; preds = %4
  %27 = load ptr, ptr %6, align 8
  %28 = getelementptr inbounds nuw %struct.RelOptInfo, ptr %27, i32 0, i32 45
  %29 = load ptr, ptr %28, align 8
  %30 = load ptr, ptr %9, align 8
  %31 = call ptr @lappend(ptr noundef %29, ptr noundef %30)
  %32 = load ptr, ptr %6, align 8
  %33 = getelementptr inbounds nuw %struct.RelOptInfo, ptr %32, i32 0, i32 45
  store ptr %31, ptr %33, align 8
  %34 = load ptr, ptr %6, align 8
  %35 = getelementptr inbounds nuw %struct.RelOptInfo, ptr %34, i32 0, i32 47
  %36 = load i32, ptr %35, align 8
  %37 = load ptr, ptr %9, align 8
  %38 = getelementptr inbounds nuw %struct.RestrictInfo, ptr %37, i32 0, i32 9
  %39 = load i32, ptr %38, align 4
  %40 = icmp ult i32 %36, %39
  br i1 %40, label %41, label %45

41:                                               ; preds = %26
  %42 = load ptr, ptr %6, align 8
  %43 = getelementptr inbounds nuw %struct.RelOptInfo, ptr %42, i32 0, i32 47
  %44 = load i32, ptr %43, align 8
  br label %49

45:                                               ; preds = %26
  %46 = load ptr, ptr %9, align 8
  %47 = getelementptr inbounds nuw %struct.RestrictInfo, ptr %46, i32 0, i32 9
  %48 = load i32, ptr %47, align 4
  br label %49

49:                                               ; preds = %45, %41
  %50 = phi i32 [ %44, %41 ], [ %48, %45 ]
  %51 = load ptr, ptr %6, align 8
  %52 = getelementptr inbounds nuw %struct.RelOptInfo, ptr %51, i32 0, i32 47
  store i32 %50, ptr %52, align 8
  %53 = load double, ptr %10, align 8
  %54 = fcmp ogt double %53, 0.000000e+00
  br i1 %54, label %55, label %82

55:                                               ; preds = %49
  call void @llvm.lifetime.start.p0(i64 104, ptr %13) #5
  %56 = load ptr, ptr %8, align 8
  %57 = getelementptr inbounds nuw %struct.RestrictInfo, ptr %56, i32 0, i32 11
  %58 = load ptr, ptr %57, align 8
  %59 = load ptr, ptr %6, align 8
  %60 = getelementptr inbounds nuw %struct.RelOptInfo, ptr %59, i32 0, i32 2
  %61 = load ptr, ptr %60, align 8
  %62 = call ptr @bms_difference(ptr noundef %58, ptr noundef %61)
  %63 = load ptr, ptr %6, align 8
  %64 = getelementptr inbounds nuw %struct.RelOptInfo, ptr %63, i32 0, i32 2
  %65 = load ptr, ptr %64, align 8
  call void @init_dummy_sjinfo(ptr noundef %13, ptr noundef %62, ptr noundef %65)
  %66 = load ptr, ptr %5, align 8
  %67 = load ptr, ptr %8, align 8
  %68 = call double @clause_selectivity(ptr noundef %66, ptr noundef %67, i32 noundef 0, i32 noundef 0, ptr noundef %13)
  store double %68, ptr %11, align 8
  %69 = load double, ptr %11, align 8
  %70 = load double, ptr %10, align 8
  %71 = fdiv double %69, %70
  %72 = load ptr, ptr %8, align 8
  %73 = getelementptr inbounds nuw %struct.RestrictInfo, ptr %72, i32 0, i32 21
  store double %71, ptr %73, align 8
  %74 = load ptr, ptr %8, align 8
  %75 = getelementptr inbounds nuw %struct.RestrictInfo, ptr %74, i32 0, i32 21
  %76 = load double, ptr %75, align 8
  %77 = fcmp ogt double %76, 1.000000e+00
  br i1 %77, label %78, label %81

78:                                               ; preds = %55
  %79 = load ptr, ptr %8, align 8
  %80 = getelementptr inbounds nuw %struct.RestrictInfo, ptr %79, i32 0, i32 21
  store double 1.000000e+00, ptr %80, align 8
  br label %81

81:                                               ; preds = %78, %55
  call void @llvm.lifetime.end.p0(i64 104, ptr %13) #5
  br label %82

82:                                               ; preds = %81, %49
  store i32 0, ptr %12, align 4
  br label %83

83:                                               ; preds = %82, %25
  call void @llvm.lifetime.end.p0(i64 8, ptr %11) #5
  call void @llvm.lifetime.end.p0(i64 8, ptr %10) #5
  call void @llvm.lifetime.end.p0(i64 8, ptr %9) #5
  %84 = load i32, ptr %12, align 4
  switch i32 %84, label %86 [
    i32 0, label %85
    i32 1, label %85
  ]

85:                                               ; preds = %83, %83
  ret void

86:                                               ; preds = %83
  unreachable
}

; Function Attrs: nounwind uwtable
define dso_local void @extract_restriction_or_clauses(ptr noundef %0) #0 {
  %2 = alloca ptr, align 8
  %3 = alloca i32, align 4
  %4 = alloca ptr, align 8
  %5 = alloca ptr, align 8
  %6 = alloca i32, align 4
  %7 = alloca %struct.ForEachState, align 8
  %8 = alloca ptr, align 8
  %9 = alloca ptr, align 8
  store ptr %0, ptr %2, align 8
  call void @llvm.lifetime.start.p0(i64 4, ptr %3) #5
  store i32 1, ptr %3, align 4
  br label %10

10:                                               ; preds = %96, %1
  %11 = load i32, ptr %3, align 4
  %12 = load ptr, ptr %2, align 8
  %13 = getelementptr inbounds nuw %struct.PlannerInfo, ptr %12, i32 0, i32 8
  %14 = load i32, ptr %13, align 8
  %15 = icmp ult i32 %11, %14
  br i1 %15, label %16, label %99

16:                                               ; preds = %10
  call void @llvm.lifetime.start.p0(i64 8, ptr %4) #5
  %17 = load ptr, ptr %2, align 8
  %18 = getelementptr inbounds nuw %struct.PlannerInfo, ptr %17, i32 0, i32 7
  %19 = load ptr, ptr %18, align 8
  %20 = load i32, ptr %3, align 4
  %21 = zext i32 %20 to i64
  %22 = getelementptr inbounds nuw ptr, ptr %19, i64 %21
  %23 = load ptr, ptr %22, align 8
  store ptr %23, ptr %4, align 8
  call void @llvm.lifetime.start.p0(i64 8, ptr %5) #5
  %24 = load ptr, ptr %4, align 8
  %25 = icmp eq ptr %24, null
  br i1 %25, label %26, label %27

26:                                               ; preds = %16
  store i32 4, ptr %6, align 4
  br label %93

27:                                               ; preds = %16
  %28 = load ptr, ptr %4, align 8
  %29 = getelementptr inbounds nuw %struct.RelOptInfo, ptr %28, i32 0, i32 1
  %30 = load i32, ptr %29, align 4
  %31 = icmp ne i32 %30, 0
  br i1 %31, label %32, label %33

32:                                               ; preds = %27
  store i32 4, ptr %6, align 4
  br label %93

33:                                               ; preds = %27
  call void @llvm.lifetime.start.p0(i64 16, ptr %7) #5
  %34 = getelementptr inbounds nuw %struct.ForEachState, ptr %7, i32 0, i32 0
  %35 = load ptr, ptr %4, align 8
  %36 = getelementptr inbounds nuw %struct.RelOptInfo, ptr %35, i32 0, i32 48
  %37 = load ptr, ptr %36, align 8
  store ptr %37, ptr %34, align 8
  %38 = getelementptr inbounds nuw %struct.ForEachState, ptr %7, i32 0, i32 1
  store i32 0, ptr %38, align 8
  %39 = getelementptr i8, ptr %7, i64 12
  call void @llvm.memset.p0.i64(ptr align 4 %39, i8 0, i64 4, i1 false)
  br label %40

40:                                               ; preds = %88, %33
  %41 = getelementptr inbounds nuw %struct.ForEachState, ptr %7, i32 0, i32 0
  %42 = load ptr, ptr %41, align 8
  %43 = icmp ne ptr %42, null
  br i1 %43, label %44, label %61

44:                                               ; preds = %40
  %45 = getelementptr inbounds nuw %struct.ForEachState, ptr %7, i32 0, i32 1
  %46 = load i32, ptr %45, align 8
  %47 = getelementptr inbounds nuw %struct.ForEachState, ptr %7, i32 0, i32 0
  %48 = load ptr, ptr %47, align 8
  %49 = getelementptr inbounds nuw %struct.List, ptr %48, i32 0, i32 1
  %50 = load i32, ptr %49, align 4
  %51 = icmp slt i32 %46, %50
  br i1 %51, label %52, label %61

52:                                               ; preds = %44
  %53 = getelementptr inbounds nuw %struct.ForEachState, ptr %7, i32 0, i32 0
  %54 = load ptr, ptr %53, align 8
  %55 = getelementptr inbounds nuw %struct.List, ptr %54, i32 0, i32 3
  %56 = load ptr, ptr %55, align 8
  %57 = getelementptr inbounds nuw %struct.ForEachState, ptr %7, i32 0, i32 1
  %58 = load i32, ptr %57, align 8
  %59 = sext i32 %58 to i64
  %60 = getelementptr inbounds %union.ListCell, ptr %56, i64 %59
  store ptr %60, ptr %5, align 8
  br label %62

61:                                               ; preds = %44, %40
  store ptr null, ptr %5, align 8
  br label %62

62:                                               ; preds = %61, %52
  %63 = phi i32 [ 1, %52 ], [ 0, %61 ]
  %64 = icmp ne i32 %63, 0
  br i1 %64, label %66, label %65

65:                                               ; preds = %62
  store i32 5, ptr %6, align 4
  call void @llvm.lifetime.end.p0(i64 16, ptr %7) #5
  br label %92

66:                                               ; preds = %62
  call void @llvm.lifetime.start.p0(i64 8, ptr %8) #5
  %67 = load ptr, ptr %5, align 8
  %68 = load ptr, ptr %67, align 8
  store ptr %68, ptr %8, align 8
  %69 = load ptr, ptr %8, align 8
  %70 = call zeroext i1 @restriction_is_or_clause(ptr noundef %69)
  br i1 %70, label %71, label %87

71:                                               ; preds = %66
  %72 = load ptr, ptr %8, align 8
  %73 = load ptr, ptr %4, align 8
  %74 = call zeroext i1 @join_clause_is_movable_to(ptr noundef %72, ptr noundef %73)
  br i1 %74, label %75, label %87

75:                                               ; preds = %71
  call void @llvm.lifetime.start.p0(i64 8, ptr %9) #5
  %76 = load ptr, ptr %8, align 8
  %77 = load ptr, ptr %4, align 8
  %78 = call ptr @extract_or_clause(ptr noundef %76, ptr noundef %77)
  store ptr %78, ptr %9, align 8
  %79 = load ptr, ptr %9, align 8
  %80 = icmp ne ptr %79, null
  br i1 %80, label %81, label %86

81:                                               ; preds = %75
  %82 = load ptr, ptr %2, align 8
  %83 = load ptr, ptr %4, align 8
  %84 = load ptr, ptr %9, align 8
  %85 = load ptr, ptr %8, align 8
  call void @consider_new_or_clause(ptr noundef %82, ptr noundef %83, ptr noundef %84, ptr noundef %85)
  br label %86

86:                                               ; preds = %81, %75
  call void @llvm.lifetime.end.p0(i64 8, ptr %9) #5
  br label %87

87:                                               ; preds = %86, %71, %66
  call void @llvm.lifetime.end.p0(i64 8, ptr %8) #5
  br label %88

88:                                               ; preds = %87
  %89 = getelementptr inbounds nuw %struct.ForEachState, ptr %7, i32 0, i32 1
  %90 = load i32, ptr %89, align 8
  %91 = add i32 %90, 1
  store i32 %91, ptr %89, align 8
  br label %40, !llvm.loop !4

92:                                               ; preds = %65
  store i32 0, ptr %6, align 4
  br label %93

93:                                               ; preds = %92, %32, %26
  call void @llvm.lifetime.end.p0(i64 8, ptr %5) #5
  call void @llvm.lifetime.end.p0(i64 8, ptr %4) #5
  %94 = load i32, ptr %6, align 4
  switch i32 %94, label %100 [
    i32 0, label %95
    i32 4, label %96
  ]

95:                                               ; preds = %93
  br label %96

96:                                               ; preds = %95, %93
  %97 = load i32, ptr %3, align 4
  %98 = add i32 %97, 1
  store i32 %98, ptr %3, align 4
  br label %10, !llvm.loop !6

99:                                               ; preds = %10
  call void @llvm.lifetime.end.p0(i64 4, ptr %3) #5
  ret void

100:                                              ; preds = %93
  unreachable
}