; Function Attrs: nounwind uwtable
define dso_local void @extract_restriction_or_clauses(ptr noundef %0) local_unnamed_addr #0 {
  %2 = alloca %struct.SpecialJoinInfo, align 8
  %3 = getelementptr inbounds nuw i8, ptr %0, i64 64
  %4 = load i32, ptr %3, align 8
  %5 = icmp ugt i32 %4, 1
  br i1 %5, label %.lr.ph34, label %._crit_edge

.lr.ph34:                                         ; preds = %1
  %6 = getelementptr inbounds nuw i8, ptr %0, i64 56
  br label %7

7:                                                ; preds = %.lr.ph34, %.thread
  %8 = phi i32 [ %4, %.lr.ph34 ], [ %60, %.thread ]
  %indvars.iv36 = phi i64 [ 1, %.lr.ph34 ], [ %indvars.iv.next37, %.thread ]
  %9 = load ptr, ptr %6, align 8
  %10 = getelementptr inbounds nuw ptr, ptr %9, i64 %indvars.iv36
  %11 = load ptr, ptr %10, align 8
  %12 = icmp eq ptr %11, null
  br i1 %12, label %.thread, label %13

13:                                               ; preds = %7
  %14 = getelementptr inbounds nuw i8, ptr %11, i64 4
  %15 = load i32, ptr %14, align 4
  %.not = icmp eq i32 %15, 0
  br i1 %.not, label %16, label %.thread

16:                                               ; preds = %13
  %17 = getelementptr inbounds nuw i8, ptr %11, i64 328
  %18 = load ptr, ptr %17, align 8
  %19 = getelementptr inbounds nuw i8, ptr %18, i64 4
  %.not26 = icmp eq ptr %18, null
  br i1 %.not26, label %.thread, label %.lr.ph

.lr.ph:                                           ; preds = %16
  %20 = getelementptr inbounds nuw i8, ptr %18, i64 16
  %21 = getelementptr inbounds nuw i8, ptr %11, i64 296
  %22 = getelementptr inbounds nuw i8, ptr %11, i64 320
  %23 = getelementptr inbounds nuw i8, ptr %11, i64 8
  %24 = load i32, ptr %19, align 4
  %25 = icmp sgt i32 %24, 0
  br i1 %25, label %.lr.ph40, label %.thread.loopexit

.lr.ph40:                                         ; preds = %.lr.ph, %consider_new_or_clause.exit
  %indvars.iv39 = phi i64 [ %indvars.iv.next, %consider_new_or_clause.exit ], [ 0, %.lr.ph ]
  %26 = load ptr, ptr %20, align 8
  %27 = getelementptr inbounds nuw %union.ListCell, ptr %26, i64 %indvars.iv39
  %28 = load ptr, ptr %27, align 8
  %29 = call zeroext i1 @restriction_is_or_clause(ptr noundef %28) #4
  br i1 %29, label %30, label %consider_new_or_clause.exit

30:                                               ; preds = %.lr.ph40
  %31 = call zeroext i1 @join_clause_is_movable_to(ptr noundef %28, ptr noundef nonnull %11) #4
  br i1 %31, label %32, label %consider_new_or_clause.exit

32:                                               ; preds = %30
  %33 = call fastcc ptr @extract_or_clause(ptr noundef %28, ptr noundef %11)
  %.not28 = icmp eq ptr %33, null
  br i1 %.not28, label %consider_new_or_clause.exit, label %34

34:                                               ; preds = %32
  %35 = getelementptr inbounds nuw i8, ptr %28, i64 28
  %36 = load i32, ptr %35, align 4
  %37 = call ptr @make_restrictinfo(ptr noundef %0, ptr noundef nonnull %33, i1 noundef zeroext true, i1 noundef zeroext false, i1 noundef zeroext false, i1 noundef zeroext false, i32 noundef %36, ptr noundef null, ptr noundef null, ptr noundef null) #4
  %38 = call double @clause_selectivity(ptr noundef %0, ptr noundef %37, i32 noundef 0, i32 noundef 0, ptr noundef null) #4
  %39 = fcmp ogt double %38, 9.000000e-01
  br i1 %39, label %consider_new_or_clause.exit, label %40

40:                                               ; preds = %34
  %41 = load ptr, ptr %21, align 8
  %42 = call ptr @lappend(ptr noundef %41, ptr noundef %37) #4
  store ptr %42, ptr %21, align 8
  %43 = load i32, ptr %22, align 8
  %44 = getelementptr inbounds nuw i8, ptr %37, i64 28
  %45 = load i32, ptr %44, align 4
  %..i = call i32 @llvm.umin.i32(i32 %43, i32 %45)
  store i32 %..i, ptr %22, align 8
  %46 = fcmp ogt double %38, 0.000000e+00
  br i1 %46, label %47, label %consider_new_or_clause.exit

47:                                               ; preds = %40
  call void @llvm.lifetime.start.p0(i64 104, ptr nonnull %2) #4
  %48 = getelementptr inbounds nuw i8, ptr %28, i64 40
  %49 = load ptr, ptr %48, align 8
  %50 = load ptr, ptr %23, align 8
  %51 = call ptr @bms_difference(ptr noundef %49, ptr noundef %50) #4
  %52 = load ptr, ptr %23, align 8
  call void @init_dummy_sjinfo(ptr noundef nonnull %2, ptr noundef %51, ptr noundef %52) #4
  %53 = call double @clause_selectivity(ptr noundef %0, ptr noundef nonnull %28, i32 noundef 0, i32 noundef 0, ptr noundef nonnull %2) #4
  %54 = fdiv double %53, %38
  %55 = getelementptr inbounds nuw i8, ptr %28, i64 128
  %56 = fcmp ogt double %54, 1.000000e+00
  %storemerge.i = select i1 %56, double 1.000000e+00, double %54
  store double %storemerge.i, ptr %55, align 8
  call void @llvm.lifetime.end.p0(i64 104, ptr nonnull %2) #4
  br label %consider_new_or_clause.exit

consider_new_or_clause.exit:                      ; preds = %47, %40, %34, %32, %30, %.lr.ph40
  %indvars.iv.next = add nuw nsw i64 %indvars.iv39, 1
  %57 = load i32, ptr %19, align 4
  %58 = sext i32 %57 to i64
  %59 = icmp slt i64 %indvars.iv.next, %58
  br i1 %59, label %.lr.ph40, label %.thread.loopexit

.thread.loopexit:                                 ; preds = %consider_new_or_clause.exit, %.lr.ph
  %.pre = load i32, ptr %3, align 8
  br label %.thread

.thread:                                          ; preds = %.thread.loopexit, %16, %13, %7
  %60 = phi i32 [ %.pre, %.thread.loopexit ], [ %8, %16 ], [ %8, %13 ], [ %8, %7 ]
  %indvars.iv.next37 = add nuw nsw i64 %indvars.iv36, 1
  %61 = zext i32 %60 to i64
  %62 = icmp samesign ult i64 %indvars.iv.next37, %61
  br i1 %62, label %7, label %._crit_edge, !llvm.loop !4

._crit_edge:                                      ; preds = %.thread, %1
  ret void
}